target datalayout = "e-m:e-p270:32:32-p271:32:32-p272:64:64-i64:64-i128:128-f80:128-n8:16:32:64-S128"
target triple = "x86_64-pc-linux-gnu"

%struct.StringInfoData = type { ptr, i32, i32, i32 }
%struct.PQcommMethods = type { ptr, ptr, ptr, ptr, ptr, ptr }

@InterruptPending = external global i32, align 4
@PqCommMethods = external global ptr, align 8

; Function Attrs: inlinehint nounwind uwtable
define internal void @pq_writeint32(ptr noalias noundef %0, i32 noundef %1) #6 {
  %3 = alloca ptr, align 8
  %4 = alloca i32, align 4
  %5 = alloca i32, align 4
  store ptr %0, ptr %3, align 8
  store i32 %1, ptr %4, align 4
  call void @llvm.lifetime.start.p0(i64 4, ptr %5) #14
  %6 = load i32, ptr %4, align 4
  %7 = call i32 @llvm.bswap.i32(i32 %6)
  store i32 %7, ptr %5, align 4
  %8 = load ptr, ptr %3, align 8
  %9 = getelementptr inbounds nuw %struct.StringInfoData, ptr %8, i32 0, i32 0
  %10 = load ptr, ptr %9, align 8
  %11 = load ptr, ptr %3, align 8
  %12 = getelementptr inbounds nuw %struct.StringInfoData, ptr %11, i32 0, i32 1
  %13 = load i32, ptr %12, align 8
  %14 = sext i32 %13 to i64
  %15 = getelementptr inbounds i8, ptr %10, i64 %14
  call void @llvm.memcpy.p0.p0.i64(ptr align 1 %15, ptr align 4 %5, i64 4, i1 false)
  %16 = load ptr, ptr %3, align 8
  %17 = getelementptr inbounds nuw %struct.StringInfoData, ptr %16, i32 0, i32 1
  %18 = load i32, ptr %17, align 8
  %19 = sext i32 %18 to i64
  %20 = add i64 %19, 4
  %21 = trunc i64 %20 to i32
  store i32 %21, ptr %17, align 8
  call void @llvm.lifetime.end.p0(i64 4, ptr %5) #14
  ret void
}

; Function Attrs: inlinehint nounwind uwtable
define internal void @pq_sendint32(ptr noundef %0, i32 noundef %1) #6 {
  %3 = alloca ptr, align 8
  %4 = alloca i32, align 4
  store ptr %0, ptr %3, align 8
  store i32 %1, ptr %4, align 4
  %5 = load ptr, ptr %3, align 8
  call void @enlargeStringInfo(ptr noundef %5, i32 noundef 4)
  %6 = load ptr, ptr %3, align 8
  %7 = load i32, ptr %4, align 4
  call void @pq_writeint32(ptr noundef %6, i32 noundef %7)
  ret void
}

; Function Attrs: nounwind uwtable
define dso_local void @sendAuthRequest(ptr noundef %0, i32 noundef %1, ptr noundef %2, i32 noundef %3) #0 {
  %5 = alloca ptr, align 8
  %6 = alloca i32, align 4
  %7 = alloca ptr, align 8
  %8 = alloca i32, align 4
  %9 = alloca %struct.StringInfoData, align 8
  store ptr %0, ptr %5, align 8
  store i32 %1, ptr %6, align 4
  store ptr %2, ptr %7, align 8
  store i32 %3, ptr %8, align 4
  call void @llvm.lifetime.start.p0(i64 24, ptr %9) #14
  br label %10

10:                                               ; preds = %4
  %11 = load volatile i32, ptr @InterruptPending, align 4
  %12 = icmp ne i32 %11, 0
  %13 = zext i1 %12 to i32
  %14 = sext i32 %13 to i64
  %15 = call i64 @llvm.expect.i64(i64 %14, i64 0)
  %16 = icmp ne i64 %15, 0
  br i1 %16, label %17, label %18

17:                                               ; preds = %10
  call void @ProcessInterrupts()
  br label %18

18:                                               ; preds = %17, %10
  br label %19

19:                                               ; preds = %18
  br label %20

20:                                               ; preds = %19
  call void @pq_beginmessage(ptr noundef %9, i8 noundef signext 82)
  %21 = load i32, ptr %6, align 4
  call void @pq_sendint32(ptr noundef %9, i32 noundef %21)
  %22 = load i32, ptr %8, align 4
  %23 = icmp sgt i32 %22, 0
  br i1 %23, label %24, label %27

24:                                               ; preds = %20
  %25 = load ptr, ptr %7, align 8
  %26 = load i32, ptr %8, align 4
  call void @pq_sendbytes(ptr noundef %9, ptr noundef %25, i32 noundef %26)
  br label %27

27:                                               ; preds = %24, %20
  call void @pq_endmessage(ptr noundef %9)
  %28 = load i32, ptr %6, align 4
  %29 = icmp ne i32 %28, 0
  br i1 %29, label %30, label %38

30:                                               ; preds = %27
  %31 = load i32, ptr %6, align 4
  %32 = icmp ne i32 %31, 12
  br i1 %32, label %33, label %38

33:                                               ; preds = %30
  %34 = load ptr, ptr @PqCommMethods, align 8
  %35 = getelementptr inbounds nuw %struct.PQcommMethods, ptr %34, i32 0, i32 1
  %36 = load ptr, ptr %35, align 8
  %37 = call i32 %36()
  br label %38

38:                                               ; preds = %33, %30, %27
  br label %39

39:                                               ; preds = %38
  %40 = load volatile i32, ptr @InterruptPending, align 4
  %41 = icmp ne i32 %40, 0
  %42 = zext i1 %41 to i32
  %43 = sext i32 %42 to i64
  %44 = call i64 @llvm.expect.i64(i64 %43, i64 0)
  %45 = icmp ne i64 %44, 0
  br i1 %45, label %46, label %47

46:                                               ; preds = %39
  call void @ProcessInterrupts()
  br label %47

47:                                               ; preds = %46, %39
  br label %48

48:                                               ; preds = %47
  br label %49

49:                                               ; preds = %48
  call void @llvm.lifetime.end.p0(i64 24, ptr %9) #14
  ret void
}