; Function Attrs: nounwind uwtable
define dso_local void @sendAuthRequest(ptr noundef readnone captures(none) %0, i32 noundef %1, ptr noundef %2, i32 noundef %3) local_unnamed_addr #0 {
  %5 = alloca %struct.StringInfoData, align 8
  call void @llvm.lifetime.start.p0(i64 24, ptr nonnull %5) #16
  %6 = load volatile i32, ptr @InterruptPending, align 4
  %.not = icmp eq i32 %6, 0
  br i1 %.not, label %8, label %7, !prof !4

7:                                                ; preds = %4
  tail call void @ProcessInterrupts() #16
  br label %8

8:                                                ; preds = %7, %4
  call void @pq_beginmessage(ptr noundef nonnull %5, i8 noundef signext 82) #16
  call void @enlargeStringInfo(ptr noundef nonnull %5, i32 noundef 4) #16
  call void @llvm.experimental.noalias.scope.decl(metadata !24)
  %9 = call i32 @llvm.bswap.i32(i32 %1)
  %10 = load ptr, ptr %5, align 8, !alias.scope !24
  %11 = getelementptr inbounds nuw i8, ptr %5, i64 8
  %12 = load i32, ptr %11, align 8, !alias.scope !24
  %13 = sext i32 %12 to i64
  %14 = getelementptr inbounds i8, ptr %10, i64 %13
  store i32 %9, ptr %14, align 1, !noalias !24
  %15 = add i32 %12, 4
  store i32 %15, ptr %11, align 8, !alias.scope !24
  %16 = icmp sgt i32 %3, 0
  br i1 %16, label %17, label %18

17:                                               ; preds = %8
  call void @pq_sendbytes(ptr noundef nonnull %5, ptr noundef %2, i32 noundef %3) #16
  br label %18

18:                                               ; preds = %17, %8
  call void @pq_endmessage(ptr noundef nonnull %5) #16
  switch i32 %1, label %19 [
    i32 12, label %24
    i32 0, label %24
  ]

19:                                               ; preds = %18
  %20 = load ptr, ptr @PqCommMethods, align 8
  %21 = getelementptr inbounds nuw i8, ptr %20, i64 8
  %22 = load ptr, ptr %21, align 8
  %23 = call i32 %22() #16
  br label %24

24:                                               ; preds = %18, %18, %19
  %25 = load volatile i32, ptr @InterruptPending, align 4
  %.not6 = icmp eq i32 %25, 0
  br i1 %.not6, label %27, label %26, !prof !4

26:                                               ; preds = %24
  call void @ProcessInterrupts() #16
  br label %27

27:                                               ; preds = %26, %24
  call void @llvm.lifetime.end.p0(i64 24, ptr nonnull %5) #16
  ret void
}